; Function Attrs: nounwind uwtable
define internal noundef i32 @sock_read(ptr noundef %0, ptr noundef captures(address_is_null) %1, i32 noundef %2) #1 {
  %.not = icmp eq ptr %1, null
  br i1 %.not, label %.thread, label %4

4:                                                ; preds = %3
  %5 = tail call ptr @__errno_location() #9
  store i32 0, ptr %5, align 4, !tbaa !3
  %6 = getelementptr inbounds nuw i8, ptr %0, i64 56
  %7 = load i32, ptr %6, align 8, !tbaa !7
  %8 = sext i32 %2 to i64
  %9 = tail call i64 @read(i32 noundef %7, ptr noundef nonnull %1, i64 noundef %8) #8
  %10 = trunc i64 %9 to i32
  tail call void @BIO_clear_flags(ptr noundef %0, i32 noundef 15) #8
  %11 = add i32 %10, 1
  %or.cond = icmp ult i32 %11, 2
  br i1 %or.cond, label %12, label %.thread

12:                                               ; preds = %4
  %13 = load i32, ptr %5, align 4, !tbaa !3
  switch i32 %13, label %14 [
    i32 11, label %BIO_sock_should_retry.exit
    i32 107, label %BIO_sock_should_retry.exit
    i32 4, label %BIO_sock_should_retry.exit
    i32 71, label %BIO_sock_should_retry.exit
    i32 115, label %BIO_sock_should_retry.exit
    i32 114, label %BIO_sock_should_retry.exit
  ]

BIO_sock_should_retry.exit:                       ; preds = %12, %12, %12, %12, %12, %12
  tail call void @BIO_set_flags(ptr noundef nonnull %0, i32 noundef 9) #8
  br label %.thread

14:                                               ; preds = %12
  %15 = icmp eq i32 %10, 0
  br i1 %15, label %16, label %.thread

16:                                               ; preds = %14
  %17 = getelementptr inbounds nuw i8, ptr %0, i64 48
  %18 = load i32, ptr %17, align 8, !tbaa !18
  %19 = or i32 %18, 2048
  store i32 %19, ptr %17, align 8, !tbaa !18
  br label %.thread

.thread:                                          ; preds = %4, %14, %16, %BIO_sock_should_retry.exit, %3
  %.0 = phi i32 [ %10, %BIO_sock_should_retry.exit ], [ 0, %16 ], [ -1, %14 ], [ %10, %4 ], [ 0, %3 ]
  ret i32 %.0
}